; Function Attrs: mustprogress nofree norecurse nosync nounwind willreturn memory(read, inaccessiblemem: none) uwtable
define dso_local noundef i32 @_Z20find_function_in_setRKSt6vectorIPK8FunctionSaIS2_EES2_(ptr noundef nonnull readonly align 8 captures(none) dereferenceable(24) %0, ptr noundef readnone %1) local_unnamed_addr #8 {
  %3 = getelementptr inbounds nuw i8, ptr %0, i64 8
  %4 = load ptr, ptr %3, align 8
  %5 = load ptr, ptr %0, align 8
  %.not = icmp eq ptr %4, %5
  br i1 %.not, label %.loopexit, label %.lr.ph.preheader

.lr.ph.preheader:                                 ; preds = %2
  %6 = ptrtoint ptr %4 to i64
  %7 = ptrtoint ptr %5 to i64
  %8 = sub i64 %6, %7
  %9 = ashr exact i64 %8, 3
  %umax = tail call i64 @llvm.umax.i64(i64 %9, i64 1)
  br label %.lr.ph

.lr.ph:                                           ; preds = %.lr.ph.preheader, %15
  %.09 = phi i64 [ %16, %15 ], [ 0, %.lr.ph.preheader ]
  %10 = getelementptr inbounds ptr, ptr %5, i64 %.09
  %11 = load ptr, ptr %10, align 8
  %12 = icmp eq ptr %11, %1
  br i1 %12, label %13, label %15

13:                                               ; preds = %.lr.ph
  %14 = trunc i64 %.09 to i32
  br label %.loopexit

15:                                               ; preds = %.lr.ph
  %16 = add nuw i64 %.09, 1
  %exitcond.not = icmp eq i64 %16, %umax
  br i1 %exitcond.not, label %.loopexit, label %.lr.ph, !llvm.loop !11

.loopexit:                                        ; preds = %15, %2, %13
  %.07 = phi i32 [ %14, %13 ], [ -1, %2 ], [ -1, %15 ]
  ret i32 %.07
}